; Function Attrs: mustprogress uwtable
define void @_ZN9grpc_core7ExecCtx3RunERKNS_13DebugLocationEP12grpc_closureN4absl12lts_202407226StatusE(ptr noundef nonnull readnone align 1 captures(none) dereferenceable(1) %0, ptr noundef %1, ptr noundef readonly captures(none) %2) local_unnamed_addr #3 align 2 personality ptr @__gxx_personality_v0 {
  %4 = alloca %"class.absl::lts_20240722::Status", align 8
  %5 = icmp eq ptr %1, null
  br i1 %5, label %31, label %6

6:                                                ; preds = %3
  %7 = load i64, ptr %2, align 8, !tbaa !12
  store i64 %7, ptr %4, align 8, !tbaa !12
  %8 = and i64 %7, 1
  %.not.i.i = icmp eq i64 %8, 0
  br i1 %.not.i.i, label %9, label %_ZN4absl12lts_202407226StatusC2ERKS1_.exit

9:                                                ; preds = %6
  %10 = inttoptr i64 %7 to ptr
  %11 = atomicrmw add ptr %10, i32 1 monotonic, align 4
  br label %_ZN4absl12lts_202407226StatusC2ERKS1_.exit

_ZN4absl12lts_202407226StatusC2ERKS1_.exit:       ; preds = %6, %9
  %12 = invoke noundef i64 @_ZN9grpc_core8internal18StatusAllocHeapPtrEN4absl12lts_202407226StatusE(ptr noundef nonnull %4)
          to label %13 unwind label %32

13:                                               ; preds = %_ZN4absl12lts_202407226StatusC2ERKS1_.exit
  %14 = getelementptr inbounds nuw i8, ptr %1, i64 24
  store i64 %12, ptr %14, align 8, !tbaa !8
  %15 = load i64, ptr %4, align 8, !tbaa !12
  %16 = and i64 %15, 1
  %.not.i.i4 = icmp eq i64 %16, 0
  br i1 %.not.i.i4, label %17, label %_ZN4absl12lts_202407226StatusD2Ev.exit

17:                                               ; preds = %13
  %18 = inttoptr i64 %15 to ptr
  invoke void @_ZNK4absl12lts_2024072215status_internal9StatusRep5UnrefEv(ptr noundef nonnull align 8 dereferenceable(48) %18)
          to label %_ZN4absl12lts_202407226StatusD2Ev.exit unwind label %19

19:                                               ; preds = %17
  %20 = landingpad { ptr, i32 }
          catch ptr null
  %21 = extractvalue { ptr, i32 } %20, 0
  call void @__clang_call_terminate(ptr %21) #16
  unreachable

_ZN4absl12lts_202407226StatusD2Ev.exit:           ; preds = %13, %17
  %22 = call align 8 ptr @llvm.threadlocal.address.p0(ptr align 8 @_ZN9grpc_core7ExecCtx9exec_ctx_E)
  %23 = load ptr, ptr %22, align 8, !tbaa !26
  %24 = getelementptr inbounds nuw i8, ptr %23, i64 8
  store ptr null, ptr %1, align 8, !tbaa !8
  %25 = load ptr, ptr %24, align 8, !tbaa !28
  %26 = icmp eq ptr %25, null
  br i1 %26, label %_ZL14exec_ctx_schedP12grpc_closure.exit, label %27

27:                                               ; preds = %_ZN4absl12lts_202407226StatusD2Ev.exit
  %28 = getelementptr inbounds nuw i8, ptr %23, i64 16
  %29 = load ptr, ptr %28, align 8, !tbaa !30
  br label %_ZL14exec_ctx_schedP12grpc_closure.exit

_ZL14exec_ctx_schedP12grpc_closure.exit:          ; preds = %_ZN4absl12lts_202407226StatusD2Ev.exit, %27
  %.sink.i.i = phi ptr [ %29, %27 ], [ %24, %_ZN4absl12lts_202407226StatusD2Ev.exit ]
  store ptr %1, ptr %.sink.i.i, align 8, !tbaa !8
  %30 = getelementptr inbounds nuw i8, ptr %23, i64 16
  store ptr %1, ptr %30, align 8, !tbaa !30
  br label %31

31:                                               ; preds = %3, %_ZL14exec_ctx_schedP12grpc_closure.exit
  ret void

32:                                               ; preds = %_ZN4absl12lts_202407226StatusC2ERKS1_.exit
  %33 = landingpad { ptr, i32 }
          cleanup
  call void @_ZN4absl12lts_202407226StatusD2Ev(ptr noundef nonnull align 8 dereferenceable(8) %4) #15
  resume { ptr, i32 } %33
}